; Function Attrs: inlinehint nofree norecurse nosync nounwind memory(argmem: readwrite) uwtable
define internal void @rgb24tobgr16_c(ptr noundef readonly captures(address) %0, ptr noundef writeonly captures(none) %1, i32 noundef %2) #3 {
  %4 = sext i32 %2 to i64
  %5 = getelementptr inbounds i8, ptr %0, i64 %4
  %6 = icmp sgt i32 %2, 0
  br i1 %6, label %.lr.ph, label %._crit_edge

.lr.ph:                                           ; preds = %3, %.lr.ph
  %.014 = phi ptr [ %23, %.lr.ph ], [ %1, %3 ]
  %.01213 = phi ptr [ %11, %.lr.ph ], [ %0, %3 ]
  %7 = getelementptr inbounds nuw i8, ptr %.01213, i64 1
  %8 = load i8, ptr %.01213, align 1, !tbaa !8
  %9 = getelementptr inbounds nuw i8, ptr %.01213, i64 2
  %10 = load i8, ptr %7, align 1, !tbaa !8
  %11 = getelementptr inbounds nuw i8, ptr %.01213, i64 3
  %12 = load i8, ptr %9, align 1, !tbaa !8
  %13 = lshr i8 %8, 3
  %14 = zext nneg i8 %13 to i16
  %15 = and i8 %10, -4
  %16 = zext i8 %15 to i16
  %17 = shl nuw nsw i16 %16, 3
  %18 = or disjoint i16 %17, %14
  %19 = and i8 %12, -8
  %20 = zext i8 %19 to i16
  %21 = shl nuw i16 %20, 8
  %22 = or disjoint i16 %18, %21
  %23 = getelementptr inbounds nuw i8, ptr %.014, i64 2
  store i16 %22, ptr %.014, align 2, !tbaa !16
  %24 = icmp ult ptr %11, %5
  br i1 %24, label %.lr.ph, label %._crit_edge, !llvm.loop !52

._crit_edge:                                      ; preds = %.lr.ph, %3
  ret void
}